target datalayout = "e-m:e-p270:32:32-p271:32:32-p272:64:64-i64:64-i128:128-f80:128-n8:16:32:64-S128"
target triple = "x86_64-unknown-linux-gnu"

%struct.smt_params_helper = type { ptr, %class.params_ref }
%class.params_ref = type { ptr }
%struct.theory_datatype_params = type { i32 }

@.str.87 = private unnamed_addr constant [4 x i8] c"smt\00", align 1
@.str.117 = private unnamed_addr constant [15 x i8] c"dt_lazy_splits\00", align 1

; Function Attrs: mustprogress nounwind uwtable
define linkonce_odr hidden void @_ZN17smt_params_helperD2Ev(ptr noundef nonnull align 8 dereferenceable(16) %this) unnamed_addr #5 comdat align 2 {
entry:
  %this.addr = alloca ptr, align 8
  store ptr %this, ptr %this.addr, align 8
  %this1 = load ptr, ptr %this.addr, align 8
  %g = getelementptr inbounds %struct.smt_params_helper, ptr %this1, i32 0, i32 1
  call void @_ZN10params_refD1Ev(ptr noundef nonnull align 8 dereferenceable(8) %g) #3
  ret void
}

; Function Attrs: mustprogress uwtable
define linkonce_odr hidden noundef i32 @_ZNK17smt_params_helper14dt_lazy_splitsEv(ptr noundef nonnull align 8 dereferenceable(16) %this) #4 comdat align 2 {
entry:
  %this.addr = alloca ptr, align 8
  store ptr %this, ptr %this.addr, align 8
  %this1 = load ptr, ptr %this.addr, align 8
  %p = getelementptr inbounds %struct.smt_params_helper, ptr %this1, i32 0, i32 0
  %0 = load ptr, ptr %p, align 8
  %g = getelementptr inbounds %struct.smt_params_helper, ptr %this1, i32 0, i32 1
  %call = call noundef i32 @_ZNK10params_ref8get_uintEPKcRKS_j(ptr noundef nonnull align 8 dereferenceable(8) %0, ptr noundef @.str.117, ptr noundef nonnull align 8 dereferenceable(8) %g, i32 noundef 1)
  ret i32 %call
}

; Function Attrs: mustprogress uwtable
define linkonce_odr hidden void @_ZN17smt_params_helperC2ERK10params_ref(ptr noundef nonnull align 8 dereferenceable(16) %this, ptr noundef nonnull align 8 dereferenceable(8) %_p) unnamed_addr #4 comdat align 2 {
entry:
  %this.addr = alloca ptr, align 8
  %_p.addr = alloca ptr, align 8
  store ptr %this, ptr %this.addr, align 8
  store ptr %_p, ptr %_p.addr, align 8
  %this1 = load ptr, ptr %this.addr, align 8
  %p = getelementptr inbounds %struct.smt_params_helper, ptr %this1, i32 0, i32 0
  %0 = load ptr, ptr %_p.addr, align 8
  store ptr %0, ptr %p, align 8
  %g = getelementptr inbounds %struct.smt_params_helper, ptr %this1, i32 0, i32 1
  call void @_ZN7gparams10get_moduleEPKc(ptr sret(%class.params_ref) align 8 %g, ptr noundef @.str.87)
  ret void
}

; Function Attrs: mustprogress uwtable
define linkonce_odr hidden void @_ZN22theory_datatype_params11updt_paramsERK10params_ref(ptr noundef nonnull align 4 dereferenceable(4) %this, ptr noundef nonnull align 8 dereferenceable(8) %_p) #4 comdat align 2 personality ptr @__gxx_personality_v0 {
entry:
  %this.addr = alloca ptr, align 8
  %_p.addr = alloca ptr, align 8
  %p = alloca %struct.smt_params_helper, align 8
  %exn.slot = alloca ptr, align 8
  %ehselector.slot = alloca i32, align 4
  store ptr %this, ptr %this.addr, align 8
  store ptr %_p, ptr %_p.addr, align 8
  %this1 = load ptr, ptr %this.addr, align 8
  %0 = load ptr, ptr %_p.addr, align 8
  call void @_ZN17smt_params_helperC2ERK10params_ref(ptr noundef nonnull align 8 dereferenceable(16) %p, ptr noundef nonnull align 8 dereferenceable(8) %0)
  %call = invoke noundef i32 @_ZNK17smt_params_helper14dt_lazy_splitsEv(ptr noundef nonnull align 8 dereferenceable(16) %p)
          to label %invoke.cont unwind label %lpad

invoke.cont:                                      ; preds = %entry
  %m_dt_lazy_splits = getelementptr inbounds %struct.theory_datatype_params, ptr %this1, i32 0, i32 0
  store i32 %call, ptr %m_dt_lazy_splits, align 4
  call void @_ZN17smt_params_helperD2Ev(ptr noundef nonnull align 8 dereferenceable(16) %p) #3
  ret void

lpad:                                             ; preds = %entry
  %1 = landingpad { ptr, i32 }
          cleanup
  %2 = extractvalue { ptr, i32 } %1, 0
  store ptr %2, ptr %exn.slot, align 8
  %3 = extractvalue { ptr, i32 } %1, 1
  store i32 %3, ptr %ehselector.slot, align 4
  call void @_ZN17smt_params_helperD2Ev(ptr noundef nonnull align 8 dereferenceable(16) %p) #3
  br label %eh.resume

eh.resume:                                        ; preds = %lpad
  %exn = load ptr, ptr %exn.slot, align 8
  %sel = load i32, ptr %ehselector.slot, align 4
  %lpad.val = insertvalue { ptr, i32 } poison, ptr %exn, 0
  %lpad.val2 = insertvalue { ptr, i32 } %lpad.val, i32 %sel, 1
  resume { ptr, i32 } %lpad.val2
}

; Function Attrs: mustprogress uwtable
define hidden void @_ZN10smt_params11updt_paramsERK10params_ref(ptr noundef nonnull align 8 dereferenceable(800) %this, ptr noundef nonnull align 8 dereferenceable(8) %p) #4 align 2 {
entry:
  %this.addr = alloca ptr, align 8
  %p.addr = alloca ptr, align 8
  store ptr %this, ptr %this.addr, align 8
  store ptr %p, ptr %p.addr, align 8
  %this1 = load ptr, ptr %this.addr, align 8
  %0 = load ptr, ptr %p.addr, align 8
  call void @_ZN19preprocessor_params11updt_paramsERK10params_ref(ptr noundef nonnull align 4 dereferenceable(67) %this1, ptr noundef nonnull align 8 dereferenceable(8) %0)
  %add.ptr = getelementptr inbounds i8, ptr %this1, i64 72
  %1 = load ptr, ptr %p.addr, align 8
  call void @_ZN14dyn_ack_params11updt_paramsERK10params_ref(ptr noundef nonnull align 8 dereferenceable(32) %add.ptr, ptr noundef nonnull align 8 dereferenceable(8) %1)
  %add.ptr2 = getelementptr inbounds i8, ptr %this1, i64 104
  %2 = load ptr, ptr %p.addr, align 8
  call void @_ZN9qi_params11updt_paramsERK10params_ref(ptr noundef nonnull align 8 dereferenceable(144) %add.ptr2, ptr noundef nonnull align 8 dereferenceable(8) %2)
  %add.ptr3 = getelementptr inbounds i8, ptr %this1, i64 248
  %3 = load ptr, ptr %p.addr, align 8
  call void @_ZN19theory_arith_params11updt_paramsERK10params_ref(ptr noundef nonnull align 8 dereferenceable(143) %add.ptr3, ptr noundef nonnull align 8 dereferenceable(8) %3)
  %add.ptr4 = getelementptr inbounds i8, ptr %this1, i64 420
  %4 = load ptr, ptr %p.addr, align 8
  call void @_ZN16theory_bv_params11updt_paramsERK10params_ref(ptr noundef nonnull align 4 dereferenceable(20) %add.ptr4, ptr noundef nonnull align 8 dereferenceable(8) %4)
  %add.ptr5 = getelementptr inbounds i8, ptr %this1, i64 492
  %5 = load ptr, ptr %p.addr, align 8
  call void @_ZN16theory_pb_params11updt_paramsERK10params_ref(ptr noundef nonnull align 4 dereferenceable(5) %add.ptr5, ptr noundef nonnull align 8 dereferenceable(8) %5)
  %add.ptr6 = getelementptr inbounds i8, ptr %this1, i64 500
  %6 = load ptr, ptr %p.addr, align 8
  call void @_ZN22theory_datatype_params11updt_paramsERK10params_ref(ptr noundef nonnull align 4 dereferenceable(4) %add.ptr6, ptr noundef nonnull align 8 dereferenceable(8) %6)
  %add.ptr7 = getelementptr inbounds i8, ptr %this1, i64 440
  %7 = load ptr, ptr %p.addr, align 8
  call void @_ZN17theory_str_params11updt_paramsERK10params_ref(ptr noundef nonnull align 8 dereferenceable(38) %add.ptr7, ptr noundef nonnull align 8 dereferenceable(8) %7)
  %8 = load ptr, ptr %p.addr, align 8
  call void @_ZN10smt_params17updt_local_paramsERK10params_ref(ptr noundef nonnull align 8 dereferenceable(800) %this1, ptr noundef nonnull align 8 dereferenceable(8) %8)
  ret void
}