; Function Attrs: mustprogress uwtable
define hidden void @_ZN10smt_params11updt_paramsERK10params_ref(ptr noundef nonnull align 8 dereferenceable(800) %this, ptr noundef nonnull align 8 dereferenceable(8) %p) local_unnamed_addr #3 align 2 personality ptr @__gxx_personality_v0 {
entry:
  %p.i = alloca %struct.smt_params_helper, align 8
  tail call void @_ZN19preprocessor_params11updt_paramsERK10params_ref(ptr noundef nonnull align 4 dereferenceable(67) %this, ptr noundef nonnull align 8 dereferenceable(8) %p)
  %add.ptr = getelementptr inbounds i8, ptr %this, i64 72
  tail call void @_ZN14dyn_ack_params11updt_paramsERK10params_ref(ptr noundef nonnull align 8 dereferenceable(32) %add.ptr, ptr noundef nonnull align 8 dereferenceable(8) %p)
  %add.ptr2 = getelementptr inbounds i8, ptr %this, i64 104
  tail call void @_ZN9qi_params11updt_paramsERK10params_ref(ptr noundef nonnull align 8 dereferenceable(144) %add.ptr2, ptr noundef nonnull align 8 dereferenceable(8) %p)
  %add.ptr3 = getelementptr inbounds i8, ptr %this, i64 248
  tail call void @_ZN19theory_arith_params11updt_paramsERK10params_ref(ptr noundef nonnull align 8 dereferenceable(143) %add.ptr3, ptr noundef nonnull align 8 dereferenceable(8) %p)
  %add.ptr4 = getelementptr inbounds i8, ptr %this, i64 420
  tail call void @_ZN16theory_bv_params11updt_paramsERK10params_ref(ptr noundef nonnull align 4 dereferenceable(20) %add.ptr4, ptr noundef nonnull align 8 dereferenceable(8) %p)
  %add.ptr5 = getelementptr inbounds i8, ptr %this, i64 492
  tail call void @_ZN16theory_pb_params11updt_paramsERK10params_ref(ptr noundef nonnull align 4 dereferenceable(5) %add.ptr5, ptr noundef nonnull align 8 dereferenceable(8) %p)
  call void @llvm.lifetime.start.p0(i64 16, ptr nonnull %p.i)
  store ptr %p, ptr %p.i, align 8
  %g.i.i = getelementptr inbounds i8, ptr %p.i, i64 8
  call void @_ZN7gparams10get_moduleEPKc(ptr nonnull sret(%class.params_ref) align 8 %g.i.i, ptr noundef nonnull @.str.87)
  %0 = load ptr, ptr %p.i, align 8
  %call.i2.i = invoke noundef i32 @_ZNK10params_ref8get_uintEPKcRKS_j(ptr noundef nonnull align 8 dereferenceable(8) %0, ptr noundef nonnull @.str.117, ptr noundef nonnull align 8 dereferenceable(8) %g.i.i, i32 noundef 1)
          to label %_ZN22theory_datatype_params11updt_paramsERK10params_ref.exit unwind label %lpad.i

lpad.i:                                           ; preds = %entry
  %1 = landingpad { ptr, i32 }
          cleanup
  call void @_ZN10params_refD1Ev(ptr noundef nonnull align 8 dereferenceable(8) %g.i.i) #14
  resume { ptr, i32 } %1

_ZN22theory_datatype_params11updt_paramsERK10params_ref.exit: ; preds = %entry
  %add.ptr6 = getelementptr inbounds i8, ptr %this, i64 500
  store i32 %call.i2.i, ptr %add.ptr6, align 4
  call void @_ZN10params_refD1Ev(ptr noundef nonnull align 8 dereferenceable(8) %g.i.i) #14
  call void @llvm.lifetime.end.p0(i64 16, ptr nonnull %p.i)
  %add.ptr7 = getelementptr inbounds i8, ptr %this, i64 440
  call void @_ZN17theory_str_params11updt_paramsERK10params_ref(ptr noundef nonnull align 8 dereferenceable(38) %add.ptr7, ptr noundef nonnull align 8 dereferenceable(8) %p)
  call void @_ZN10smt_params17updt_local_paramsERK10params_ref(ptr noundef nonnull align 8 dereferenceable(800) %this, ptr noundef nonnull align 8 dereferenceable(8) %p)
  ret void
}